(lp0
S'Census_IsFlightsDisabled'
p1
aS'Census_OSBranch'
p2
aS'Platform'
p3
aS'Census_OSVersion'
p4
aS'Census_IsVirtualDevice'
p5
aS'Census_IsTouchEnabled'
p6
aS'IsBeta'
p7
aS'Wdft_IsGamer'
p8
aS'Census_IsAlwaysOnAlwaysConnectedCapable'
p9
aS'Census_PrimaryDiskTypeName'
p10
aS'Census_InternalBatteryType'
p11
aS'Census_IsPortableOperatingSystem'
p12
aS'Census_DeviceFamily'
p13
aS'Census_PowerPlatformRoleName'
p14
aS'IsSxsPassiveMode'
p15
aS'OsVer'
p16
aS'Census_IsWIMBootEnabled'
p17
aS'Census_IsFlightingInternal'
p18
aS'PuaMode'
p19
aS'Census_MDC2FormFactor'
p20
aS'Census_OSSkuName'
p21
aS'Census_IsPenCapable'
p22
aS'Census_IsSecureBootEnabled'
p23
aS'SkuEdition'
p24
aS'AvSigVersion'
p25
aS'AppVersion'
p26
aS'Census_ActivationChannel'
p27
aS'OsPlatformSubRelease'
p28
aS'Census_FlightRing'
p29
aS'Census_OSInstallTypeName'
p30
aS'EngineVersion'
p31
aS'OsBuildLab'
p32
aS'Processor'
p33
aS'Census_ChassisTypeName'
p34
aS'Census_OSWUAutoUpdateOptionsName'
p35
aS'Census_GenuineStateName'
p36
aS'ProductName'
p37
aS'Census_OSArchitecture'
p38
aS'IsProtected'
p39
aS'Census_OSEdition'
p40
aS'Census_ProcessorClass'
p41
aS'SmartScreen'
p42
a.